; Function Attrs: nounwind uwtable
define range(i32 -29, 1) i32 @pmix20_bfrop_pack_rank(ptr noundef readnone captures(none) %0, ptr noundef %1, ptr noundef readonly captures(none) %2, i32 noundef %3, i16 noundef zeroext %4) local_unnamed_addr #0 {
  %6 = load i32, ptr getelementptr inbounds nuw (i8, ptr @pmix_bfrops_base_framework, i64 76), align 4, !tbaa !14
  %or.cond.i = icmp ult i32 %6, 64
  br i1 %or.cond.i, label %7, label %13

7:                                                ; preds = %5
  %8 = zext nneg i32 %6 to i64
  %9 = getelementptr inbounds nuw [0 x %struct.pmix_output_desc_t], ptr @pmix_output_info, i64 0, i64 %8, i32 2
  %10 = load i32, ptr %9, align 4, !tbaa !20
  %11 = icmp sgt i32 %10, 19
  br i1 %11, label %12, label %13

12:                                               ; preds = %7
  tail call void (i32, ptr, ...) @pmix_output(i32 noundef %6, ptr noundef nonnull @.str.4, i32 noundef %3) #8
  br label %13

13:                                               ; preds = %12, %7, %5
  %14 = sext i32 %3 to i64
  %15 = shl nsw i64 %14, 2
  %16 = tail call ptr @pmix_bfrop_buffer_extend(ptr noundef %1, i64 noundef %15) #8
  %17 = icmp eq ptr %16, null
  br i1 %17, label %pmix20_bfrop_pack_int32.exit, label %.preheader.i

.preheader.i:                                     ; preds = %13
  %18 = icmp sgt i32 %3, 0
  br i1 %18, label %.lr.ph.preheader.i, label %._crit_edge.i

.lr.ph.preheader.i:                               ; preds = %.preheader.i
  %wide.trip.count.i = zext nneg i32 %3 to i64
  br label %.lr.ph.i

.lr.ph.i:                                         ; preds = %.lr.ph.i, %.lr.ph.preheader.i
  %indvars.iv.i = phi i64 [ 0, %.lr.ph.preheader.i ], [ %indvars.iv.next.i, %.lr.ph.i ]
  %.021.i = phi ptr [ %16, %.lr.ph.preheader.i ], [ %22, %.lr.ph.i ]
  %19 = getelementptr inbounds nuw i32, ptr %2, i64 %indvars.iv.i
  %20 = load i32, ptr %19, align 4, !tbaa !34
  %21 = tail call noundef i32 @llvm.bswap.i32(i32 %20)
  store i32 %21, ptr %.021.i, align 1
  %22 = getelementptr inbounds nuw i8, ptr %.021.i, i64 4
  %indvars.iv.next.i = add nuw nsw i64 %indvars.iv.i, 1
  %exitcond.not.i = icmp eq i64 %indvars.iv.next.i, %wide.trip.count.i
  br i1 %exitcond.not.i, label %._crit_edge.i, label %.lr.ph.i, !llvm.loop !35

._crit_edge.i:                                    ; preds = %.lr.ph.i, %.preheader.i
  %23 = getelementptr inbounds nuw i8, ptr %1, i64 136
  %24 = load ptr, ptr %23, align 8, !tbaa !23
  %25 = getelementptr inbounds nuw i8, ptr %24, i64 %15
  store ptr %25, ptr %23, align 8, !tbaa !23
  %26 = getelementptr inbounds nuw i8, ptr %1, i64 160
  %27 = load i64, ptr %26, align 8, !tbaa !24
  %28 = add i64 %27, %15
  store i64 %28, ptr %26, align 8, !tbaa !24
  br label %pmix20_bfrop_pack_int32.exit

pmix20_bfrop_pack_int32.exit:                     ; preds = %13, %._crit_edge.i
  %.016.i = phi i32 [ 0, %._crit_edge.i ], [ -29, %13 ]
  ret i32 %.016.i
}